#include <math.h>
#include <stdio.h>
#include <stdlib.h>
#include <string.h>


void main()
{
int n,i,j;
int a[20000],b[20000];

scanf("%d",&n);
for(i=0;i<n;i++)
	scanf("%d",&a[i]);

b[0]=a[0];
for(i=0;i<n;i++)
{
for(j=i+1;j<n;j++)
	{if(a[i]==a[j])
	a[j]=0;}
}

j=0;
for(i=0;i<n;i++)
{if (a[i]==0) ;
else {b[j]=a[i];j++;}
}

for(i=0;i<j-1;i++)
	printf("%d ",b[i]);
printf("%d",b[j-1]);

}